target datalayout = "e-m:e-p270:32:32-p271:32:32-p272:64:64-i64:64-i128:128-f80:128-n8:16:32:64-S128"
target triple = "x86_64-pc-linux-gnu"

%struct.agxbuf = type { %union.anon.10 }
%union.anon.10 = type { %struct.anon.11 }
%struct.anon.11 = type { ptr, i64, i64, [7 x i8], i8 }

; Function Attrs: inlinehint nounwind uwtable
define internal zeroext i1 @agxbuf_is_inline(ptr noundef %0) #8 {
  %2 = alloca ptr, align 8
  store ptr %0, ptr %2, align 8, !tbaa !10
  %3 = load ptr, ptr %2, align 8, !tbaa !10
  %4 = getelementptr inbounds nuw %struct.agxbuf, ptr %3, i32 0, i32 0
  %5 = getelementptr inbounds nuw %struct.anon.11, ptr %4, i32 0, i32 4
  %6 = load i8, ptr %5, align 1, !tbaa !11
  %7 = zext i8 %6 to i32
  %8 = icmp slt i32 %7, 255
  ret i1 %8
}

; Function Attrs: inlinehint nounwind uwtable
define internal i64 @agxblen(ptr noundef %0) #8 {
  %2 = alloca i64, align 8
  %3 = alloca ptr, align 8
  store ptr %0, ptr %3, align 8, !tbaa !10
  %4 = load ptr, ptr %3, align 8, !tbaa !10
  %5 = call zeroext i1 @agxbuf_is_inline(ptr noundef %4)
  br i1 %5, label %6, label %14

6:                                                ; preds = %1
  %7 = load ptr, ptr %3, align 8, !tbaa !10
  %8 = getelementptr inbounds nuw %struct.agxbuf, ptr %7, i32 0, i32 0
  %9 = getelementptr inbounds nuw %struct.anon.11, ptr %8, i32 0, i32 4
  %10 = load i8, ptr %9, align 1, !tbaa !11
  %11 = zext i8 %10 to i32
  %12 = sub nsw i32 %11, 0
  %13 = sext i32 %12 to i64
  store i64 %13, ptr %2, align 8
  br label %19

14:                                               ; preds = %1
  %15 = load ptr, ptr %3, align 8, !tbaa !10
  %16 = getelementptr inbounds nuw %struct.agxbuf, ptr %15, i32 0, i32 0
  %17 = getelementptr inbounds nuw %struct.anon.11, ptr %16, i32 0, i32 1
  %18 = load i64, ptr %17, align 8, !tbaa !11
  store i64 %18, ptr %2, align 8
  br label %19

19:                                               ; preds = %14, %6
  %20 = load i64, ptr %2, align 8
  ret i64 %20
}

; Function Attrs: inlinehint nounwind uwtable
define internal i64 @agxbsizeof(ptr noundef %0) #8 {
  %2 = alloca i64, align 8
  %3 = alloca ptr, align 8
  store ptr %0, ptr %3, align 8, !tbaa !10
  %4 = load ptr, ptr %3, align 8, !tbaa !10
  %5 = call zeroext i1 @agxbuf_is_inline(ptr noundef %4)
  br i1 %5, label %6, label %7

6:                                                ; preds = %1
  store i64 31, ptr %2, align 8
  br label %12

7:                                                ; preds = %1
  %8 = load ptr, ptr %3, align 8, !tbaa !10
  %9 = getelementptr inbounds nuw %struct.agxbuf, ptr %8, i32 0, i32 0
  %10 = getelementptr inbounds nuw %struct.anon.11, ptr %9, i32 0, i32 2
  %11 = load i64, ptr %10, align 8, !tbaa !11
  store i64 %11, ptr %2, align 8
  br label %12

12:                                               ; preds = %7, %6
  %13 = load i64, ptr %2, align 8
  ret i64 %13
}

; Function Attrs: inlinehint nounwind uwtable
define internal i32 @agxbputc(ptr noundef %0, i8 noundef signext %1) #8 {
  %3 = alloca ptr, align 8
  %4 = alloca i8, align 1
  %5 = alloca i64, align 8
  store ptr %0, ptr %3, align 8, !tbaa !10
  store i8 %1, ptr %4, align 1, !tbaa !11
  %6 = load ptr, ptr %3, align 8, !tbaa !10
  %7 = call i64 @agxblen(ptr noundef %6)
  %8 = load ptr, ptr %3, align 8, !tbaa !10
  %9 = call i64 @agxbsizeof(ptr noundef %8)
  %10 = icmp uge i64 %7, %9
  br i1 %10, label %11, label %13

11:                                               ; preds = %2
  %12 = load ptr, ptr %3, align 8, !tbaa !10
  call void @agxbmore(ptr noundef %12, i64 noundef 1)
  br label %13

13:                                               ; preds = %11, %2
  call void @llvm.lifetime.start.p0(i64 8, ptr %5) #15
  %14 = load ptr, ptr %3, align 8, !tbaa !10
  %15 = call i64 @agxblen(ptr noundef %14)
  store i64 %15, ptr %5, align 8, !tbaa !45
  %16 = load ptr, ptr %3, align 8, !tbaa !10
  %17 = call zeroext i1 @agxbuf_is_inline(ptr noundef %16)
  br i1 %17, label %18, label %29

18:                                               ; preds = %13
  %19 = load i8, ptr %4, align 1, !tbaa !11
  %20 = load ptr, ptr %3, align 8, !tbaa !10
  %21 = getelementptr inbounds nuw %struct.agxbuf, ptr %20, i32 0, i32 0
  %22 = load i64, ptr %5, align 8, !tbaa !45
  %23 = getelementptr inbounds nuw [31 x i8], ptr %21, i64 0, i64 %22
  store i8 %19, ptr %23, align 1, !tbaa !11
  %24 = load ptr, ptr %3, align 8, !tbaa !10
  %25 = getelementptr inbounds nuw %struct.agxbuf, ptr %24, i32 0, i32 0
  %26 = getelementptr inbounds nuw %struct.anon.11, ptr %25, i32 0, i32 4
  %27 = load i8, ptr %26, align 1, !tbaa !11
  %28 = add i8 %27, 1
  store i8 %28, ptr %26, align 1, !tbaa !11
  br label %42

29:                                               ; preds = %13
  %30 = load i8, ptr %4, align 1, !tbaa !11
  %31 = load ptr, ptr %3, align 8, !tbaa !10
  %32 = getelementptr inbounds nuw %struct.agxbuf, ptr %31, i32 0, i32 0
  %33 = getelementptr inbounds nuw %struct.anon.11, ptr %32, i32 0, i32 0
  %34 = load ptr, ptr %33, align 8, !tbaa !11
  %35 = load i64, ptr %5, align 8, !tbaa !45
  %36 = getelementptr inbounds nuw i8, ptr %34, i64 %35
  store i8 %30, ptr %36, align 1, !tbaa !11
  %37 = load ptr, ptr %3, align 8, !tbaa !10
  %38 = getelementptr inbounds nuw %struct.agxbuf, ptr %37, i32 0, i32 0
  %39 = getelementptr inbounds nuw %struct.anon.11, ptr %38, i32 0, i32 1
  %40 = load i64, ptr %39, align 8, !tbaa !11
  %41 = add i64 %40, 1
  store i64 %41, ptr %39, align 8, !tbaa !11
  br label %42

42:                                               ; preds = %29, %18
  call void @llvm.lifetime.end.p0(i64 8, ptr %5) #15
  ret i32 0
}

; Function Attrs: inlinehint nounwind uwtable
define internal i64 @agxbput_n(ptr noundef %0, ptr noundef %1, i64 noundef %2) #8 {
  %4 = alloca i64, align 8
  %5 = alloca ptr, align 8
  %6 = alloca ptr, align 8
  %7 = alloca i64, align 8
  %8 = alloca i64, align 8
  store ptr %0, ptr %5, align 8, !tbaa !10
  store ptr %1, ptr %6, align 8, !tbaa !42
  store i64 %2, ptr %7, align 8, !tbaa !45
  %9 = load i64, ptr %7, align 8, !tbaa !45
  %10 = icmp eq i64 %9, 0
  br i1 %10, label %11, label %12

11:                                               ; preds = %3
  store i64 0, ptr %4, align 8
  br label %62

12:                                               ; preds = %3
  %13 = load i64, ptr %7, align 8, !tbaa !45
  %14 = load ptr, ptr %5, align 8, !tbaa !10
  %15 = call i64 @agxbsizeof(ptr noundef %14)
  %16 = load ptr, ptr %5, align 8, !tbaa !10
  %17 = call i64 @agxblen(ptr noundef %16)
  %18 = sub i64 %15, %17
  %19 = icmp ugt i64 %13, %18
  br i1 %19, label %20, label %23

20:                                               ; preds = %12
  %21 = load ptr, ptr %5, align 8, !tbaa !10
  %22 = load i64, ptr %7, align 8, !tbaa !45
  call void @agxbmore(ptr noundef %21, i64 noundef %22)
  br label %23

23:                                               ; preds = %20, %12
  call void @llvm.lifetime.start.p0(i64 8, ptr %8) #15
  %24 = load ptr, ptr %5, align 8, !tbaa !10
  %25 = call i64 @agxblen(ptr noundef %24)
  store i64 %25, ptr %8, align 8, !tbaa !45
  %26 = load ptr, ptr %5, align 8, !tbaa !10
  %27 = call zeroext i1 @agxbuf_is_inline(ptr noundef %26)
  br i1 %27, label %28, label %45

28:                                               ; preds = %23
  %29 = load ptr, ptr %5, align 8, !tbaa !10
  %30 = getelementptr inbounds nuw %struct.agxbuf, ptr %29, i32 0, i32 0
  %31 = load i64, ptr %8, align 8, !tbaa !45
  %32 = getelementptr inbounds nuw [31 x i8], ptr %30, i64 0, i64 %31
  %33 = load ptr, ptr %6, align 8, !tbaa !42
  %34 = load i64, ptr %7, align 8, !tbaa !45
  call void @llvm.memcpy.p0.p0.i64(ptr align 1 %32, ptr align 1 %33, i64 %34, i1 false)
  %35 = load i64, ptr %7, align 8, !tbaa !45
  %36 = trunc i64 %35 to i8
  %37 = zext i8 %36 to i32
  %38 = load ptr, ptr %5, align 8, !tbaa !10
  %39 = getelementptr inbounds nuw %struct.agxbuf, ptr %38, i32 0, i32 0
  %40 = getelementptr inbounds nuw %struct.anon.11, ptr %39, i32 0, i32 4
  %41 = load i8, ptr %40, align 1, !tbaa !11
  %42 = zext i8 %41 to i32
  %43 = add nsw i32 %42, %37
  %44 = trunc i32 %43 to i8
  store i8 %44, ptr %40, align 1, !tbaa !11
  br label %60

45:                                               ; preds = %23
  %46 = load ptr, ptr %5, align 8, !tbaa !10
  %47 = getelementptr inbounds nuw %struct.agxbuf, ptr %46, i32 0, i32 0
  %48 = getelementptr inbounds nuw %struct.anon.11, ptr %47, i32 0, i32 0
  %49 = load ptr, ptr %48, align 8, !tbaa !11
  %50 = load i64, ptr %8, align 8, !tbaa !45
  %51 = getelementptr inbounds nuw i8, ptr %49, i64 %50
  %52 = load ptr, ptr %6, align 8, !tbaa !42
  %53 = load i64, ptr %7, align 8, !tbaa !45
  call void @llvm.memcpy.p0.p0.i64(ptr align 1 %51, ptr align 1 %52, i64 %53, i1 false)
  %54 = load i64, ptr %7, align 8, !tbaa !45
  %55 = load ptr, ptr %5, align 8, !tbaa !10
  %56 = getelementptr inbounds nuw %struct.agxbuf, ptr %55, i32 0, i32 0
  %57 = getelementptr inbounds nuw %struct.anon.11, ptr %56, i32 0, i32 1
  %58 = load i64, ptr %57, align 8, !tbaa !11
  %59 = add i64 %58, %54
  store i64 %59, ptr %57, align 8, !tbaa !11
  br label %60

60:                                               ; preds = %45, %28
  %61 = load i64, ptr %7, align 8, !tbaa !45
  store i64 %61, ptr %4, align 8
  call void @llvm.lifetime.end.p0(i64 8, ptr %8) #15
  br label %62

62:                                               ; preds = %60, %11
  %63 = load i64, ptr %4, align 8
  ret i64 %63
}

; Function Attrs: inlinehint nounwind uwtable
define internal zeroext i1 @gv_isdigit(i32 noundef %0) #8 {
  %2 = alloca i32, align 4
  store i32 %0, ptr %2, align 4, !tbaa !38
  %3 = load i32, ptr %2, align 4, !tbaa !38
  %4 = icmp sge i32 %3, 48
  br i1 %4, label %5, label %8

5:                                                ; preds = %1
  %6 = load i32, ptr %2, align 4, !tbaa !38
  %7 = icmp sle i32 %6, 57
  br label %8

8:                                                ; preds = %5, %1
  %9 = phi i1 [ false, %1 ], [ %7, %5 ]
  ret i1 %9
}

; Function Attrs: nounwind uwtable
define internal void @replace(ptr noundef %0, ptr noundef %1, ptr noundef %2, i32 noundef %3, ptr noundef %4) #0 {
  %6 = alloca ptr, align 8
  %7 = alloca ptr, align 8
  %8 = alloca ptr, align 8
  %9 = alloca i32, align 4
  %10 = alloca ptr, align 8
  %11 = alloca i8, align 1
  %12 = alloca i32, align 4
  %13 = alloca i64, align 8
  store ptr %0, ptr %6, align 8, !tbaa !10
  store ptr %1, ptr %7, align 8, !tbaa !42
  store ptr %2, ptr %8, align 8, !tbaa !42
  store i32 %3, ptr %9, align 4, !tbaa !38
  store ptr %4, ptr %10, align 8, !tbaa !121
  call void @llvm.lifetime.start.p0(i64 1, ptr %11) #15
  call void @llvm.lifetime.start.p0(i64 4, ptr %12) #15
  br label %14

14:                                               ; preds = %71, %5
  %15 = load ptr, ptr %8, align 8, !tbaa !42
  %16 = getelementptr inbounds nuw i8, ptr %15, i32 1
  store ptr %16, ptr %8, align 8, !tbaa !42
  %17 = load i8, ptr %15, align 1, !tbaa !11
  store i8 %17, ptr %11, align 1, !tbaa !11
  %18 = icmp ne i8 %17, 0
  br i1 %18, label %19, label %72

19:                                               ; preds = %14
  %20 = load i8, ptr %11, align 1, !tbaa !11
  %21 = sext i8 %20 to i32
  %22 = icmp eq i32 %21, 92
  br i1 %22, label %23, label %67

23:                                               ; preds = %19
  %24 = load ptr, ptr %8, align 8, !tbaa !42
  %25 = load i8, ptr %24, align 1, !tbaa !11
  store i8 %25, ptr %11, align 1, !tbaa !11
  %26 = sext i8 %25 to i32
  %27 = icmp ne i32 %26, 0
  br i1 %27, label %28, label %63

28:                                               ; preds = %23
  %29 = load i8, ptr %11, align 1, !tbaa !11
  %30 = sext i8 %29 to i32
  %31 = call zeroext i1 @gv_isdigit(i32 noundef %30)
  br i1 %31, label %32, label %63

32:                                               ; preds = %28
  %33 = load i8, ptr %11, align 1, !tbaa !11
  %34 = sext i8 %33 to i32
  %35 = sub nsw i32 %34, 48
  store i32 %35, ptr %12, align 4, !tbaa !38
  %36 = load i32, ptr %12, align 4, !tbaa !38
  %37 = load i32, ptr %9, align 4, !tbaa !38
  %38 = icmp slt i32 %36, %37
  br i1 %38, label %39, label %60

39:                                               ; preds = %32
  call void @llvm.lifetime.start.p0(i64 8, ptr %13) #15
  %40 = load ptr, ptr %10, align 8, !tbaa !121
  %41 = load i32, ptr %12, align 4, !tbaa !38
  %42 = mul nsw i32 2, %41
  %43 = sext i32 %42 to i64
  %44 = getelementptr inbounds i64, ptr %40, i64 %43
  %45 = load i64, ptr %44, align 8, !tbaa !45
  store i64 %45, ptr %13, align 8, !tbaa !45
  %46 = load ptr, ptr %6, align 8, !tbaa !10
  %47 = load ptr, ptr %7, align 8, !tbaa !42
  %48 = load i64, ptr %13, align 8, !tbaa !45
  %49 = getelementptr inbounds nuw i8, ptr %47, i64 %48
  %50 = load ptr, ptr %10, align 8, !tbaa !121
  %51 = load i32, ptr %12, align 4, !tbaa !38
  %52 = mul nsw i32 2, %51
  %53 = add nsw i32 %52, 1
  %54 = sext i32 %53 to i64
  %55 = getelementptr inbounds i64, ptr %50, i64 %54
  %56 = load i64, ptr %55, align 8, !tbaa !45
  %57 = load i64, ptr %13, align 8, !tbaa !45
  %58 = sub i64 %56, %57
  %59 = call i64 @agxbput_n(ptr noundef %46, ptr noundef %49, i64 noundef %58)
  call void @llvm.lifetime.end.p0(i64 8, ptr %13) #15
  br label %60

60:                                               ; preds = %39, %32
  %61 = load ptr, ptr %8, align 8, !tbaa !42
  %62 = getelementptr inbounds nuw i8, ptr %61, i32 1
  store ptr %62, ptr %8, align 8, !tbaa !42
  br label %66

63:                                               ; preds = %28, %23
  %64 = load ptr, ptr %6, align 8, !tbaa !10
  %65 = call i32 @agxbputc(ptr noundef %64, i8 noundef signext 92)
  br label %66

66:                                               ; preds = %63, %60
  br label %71

67:                                               ; preds = %19
  %68 = load ptr, ptr %6, align 8, !tbaa !10
  %69 = load i8, ptr %11, align 1, !tbaa !11
  %70 = call i32 @agxbputc(ptr noundef %68, i8 noundef signext %69)
  br label %71

71:                                               ; preds = %67, %66
  br label %14, !llvm.loop !123

72:                                               ; preds = %14
  call void @llvm.lifetime.end.p0(i64 4, ptr %12) #15
  call void @llvm.lifetime.end.p0(i64 1, ptr %11) #15
  ret void
}