; Function Attrs: nounwind uwtable
define internal fastcc void @replace(ptr noundef nonnull captures(none) %0, ptr noundef readonly captures(none) %1, ptr noundef nonnull readonly captures(none) %2, i32 noundef range(i32 1, 0) %3, ptr noundef nonnull readonly captures(none) %4) unnamed_addr #0 {
  %6 = getelementptr i8, ptr %0, i64 31
  %7 = getelementptr inbounds nuw i8, ptr %0, i64 16
  %8 = getelementptr inbounds nuw i8, ptr %0, i64 8
  br label %agxbputc.exit

agxbputc.exit:                                    ; preds = %agxbputc.exit.backedge, %5
  %.0 = phi ptr [ %2, %5 ], [ %.0.be, %agxbputc.exit.backedge ]
  %9 = getelementptr inbounds nuw i8, ptr %.0, i64 1
  %10 = load i8, ptr %.0, align 1, !tbaa !3
  switch i8 %10, label %71 [
    i8 0, label %89
    i8 92, label %11
  ]

11:                                               ; preds = %agxbputc.exit
  %12 = load i8, ptr %9, align 1, !tbaa !3
  %.not21 = icmp eq i8 %12, 0
  br i1 %.not21, label %53, label %13

13:                                               ; preds = %11
  %14 = sext i8 %12 to i32
  %15 = add nsw i32 %14, -48
  %16 = icmp ult i32 %15, 10
  br i1 %16, label %17, label %53

17:                                               ; preds = %13
  %18 = icmp slt i32 %15, %3
  br i1 %18, label %19, label %agxbput_n.exit

19:                                               ; preds = %17
  %20 = shl nuw nsw i32 %15, 1
  %21 = zext nneg i32 %20 to i64
  %22 = getelementptr inbounds nuw i64, ptr %4, i64 %21
  %23 = load i64, ptr %22, align 8, !tbaa !40
  %24 = getelementptr inbounds nuw i8, ptr %1, i64 %23
  %25 = or disjoint i32 %20, 1
  %26 = zext nneg i32 %25 to i64
  %27 = getelementptr inbounds nuw i64, ptr %4, i64 %26
  %28 = load i64, ptr %27, align 8, !tbaa !40
  %29 = sub i64 %28, %23
  %30 = icmp eq i64 %28, %23
  br i1 %30, label %agxbput_n.exit, label %31

31:                                               ; preds = %19
  %.val.i.i = load i8, ptr %6, align 1, !tbaa !3
  %.not.i.i = icmp eq i8 %.val.i.i, -1
  br i1 %.not.i.i, label %33, label %agxbsizeof.exit.i

agxbsizeof.exit.i:                                ; preds = %31
  %32 = zext i8 %.val.i.i to i64
  br label %agxblen.exit.i

33:                                               ; preds = %31
  %34 = load i64, ptr %7, align 8, !tbaa !3
  %35 = load i64, ptr %8, align 8, !tbaa !3
  br label %agxblen.exit.i

agxblen.exit.i:                                   ; preds = %33, %agxbsizeof.exit.i
  %.0.i30.i = phi i64 [ 31, %agxbsizeof.exit.i ], [ %34, %33 ]
  %.0.i24.i = phi i64 [ %32, %agxbsizeof.exit.i ], [ %35, %33 ]
  %36 = sub i64 %.0.i30.i, %.0.i24.i
  %37 = icmp ugt i64 %29, %36
  br i1 %37, label %38, label %39

38:                                               ; preds = %agxblen.exit.i
  tail call fastcc void @agxbmore(ptr noundef nonnull %0, i64 noundef %29)
  %.val.i25.pre.i = load i8, ptr %6, align 1, !tbaa !3
  br label %39

39:                                               ; preds = %38, %agxblen.exit.i
  %.val.i25.i = phi i8 [ %.val.i25.pre.i, %38 ], [ %.val.i.i, %agxblen.exit.i ]
  %.not.i26.i = icmp eq i8 %.val.i25.i, -1
  br i1 %.not.i26.i, label %46, label %40

40:                                               ; preds = %39
  %41 = zext i8 %.val.i25.i to i64
  %42 = getelementptr inbounds nuw [31 x i8], ptr %0, i64 0, i64 %41
  tail call void @llvm.memcpy.p0.p0.i64(ptr nonnull align 1 %42, ptr readonly align 1 %24, i64 %29, i1 false)
  %43 = trunc i64 %29 to i8
  %44 = load i8, ptr %6, align 1, !tbaa !3
  %45 = add i8 %44, %43
  store i8 %45, ptr %6, align 1, !tbaa !3
  br label %agxbput_n.exit

46:                                               ; preds = %39
  %47 = load i64, ptr %8, align 8, !tbaa !3
  %48 = load ptr, ptr %0, align 8, !tbaa !3
  %49 = getelementptr inbounds nuw i8, ptr %48, i64 %47
  tail call void @llvm.memcpy.p0.p0.i64(ptr align 1 %49, ptr readonly align 1 %24, i64 %29, i1 false)
  %50 = load i64, ptr %8, align 8, !tbaa !3
  %51 = add i64 %50, %29
  store i64 %51, ptr %8, align 8, !tbaa !3
  br label %agxbput_n.exit

agxbput_n.exit:                                   ; preds = %46, %40, %19, %17
  %52 = getelementptr inbounds nuw i8, ptr %.0, i64 2
  br label %agxbputc.exit.backedge

53:                                               ; preds = %13, %11
  %.val.i.i22 = load i8, ptr %6, align 1, !tbaa !3
  %.not.i.i23 = icmp eq i8 %.val.i.i22, -1
  br i1 %.not.i.i23, label %55, label %agxblen.exit.i24

agxblen.exit.i24:                                 ; preds = %53
  %54 = zext i8 %.val.i.i22 to i64
  br label %agxbsizeof.exit.i25

55:                                               ; preds = %53
  %56 = load i64, ptr %8, align 8, !tbaa !3
  %57 = load i64, ptr %7, align 8, !tbaa !3
  br label %agxbsizeof.exit.i25

agxbsizeof.exit.i25:                              ; preds = %55, %agxblen.exit.i24
  %.0.i20.i = phi i64 [ %56, %55 ], [ %54, %agxblen.exit.i24 ]
  %.0.i14.i = phi i64 [ %57, %55 ], [ 31, %agxblen.exit.i24 ]
  %.not.i = icmp ult i64 %.0.i20.i, %.0.i14.i
  br i1 %.not.i, label %59, label %58

58:                                               ; preds = %agxbsizeof.exit.i25
  tail call fastcc void @agxbmore(ptr noundef nonnull %0, i64 noundef 1)
  %.val.i15.pre.i = load i8, ptr %6, align 1, !tbaa !3
  br label %59

59:                                               ; preds = %58, %agxbsizeof.exit.i25
  %.val.i15.i = phi i8 [ %.val.i15.pre.i, %58 ], [ %.val.i.i22, %agxbsizeof.exit.i25 ]
  %.not.i16.i = icmp eq i8 %.val.i15.i, -1
  br i1 %.not.i16.i, label %65, label %60

60:                                               ; preds = %59
  %61 = zext i8 %.val.i15.i to i64
  %62 = getelementptr inbounds nuw [31 x i8], ptr %0, i64 0, i64 %61
  store i8 92, ptr %62, align 1, !tbaa !3
  %63 = load i8, ptr %6, align 1, !tbaa !3
  %64 = add i8 %63, 1
  store i8 %64, ptr %6, align 1, !tbaa !3
  br label %agxbputc.exit.backedge

65:                                               ; preds = %59
  %66 = load i64, ptr %8, align 8, !tbaa !3
  %67 = load ptr, ptr %0, align 8, !tbaa !3
  %68 = getelementptr inbounds nuw i8, ptr %67, i64 %66
  store i8 92, ptr %68, align 1, !tbaa !3
  %69 = load i64, ptr %8, align 8, !tbaa !3
  %70 = add i64 %69, 1
  store i64 %70, ptr %8, align 8, !tbaa !3
  br label %agxbputc.exit.backedge

71:                                               ; preds = %agxbputc.exit
  %.val.i.i26 = load i8, ptr %6, align 1, !tbaa !3
  %.not.i.i27 = icmp eq i8 %.val.i.i26, -1
  br i1 %.not.i.i27, label %73, label %agxblen.exit.i28

agxblen.exit.i28:                                 ; preds = %71
  %72 = zext i8 %.val.i.i26 to i64
  br label %agxbsizeof.exit.i29

73:                                               ; preds = %71
  %74 = load i64, ptr %8, align 8, !tbaa !3
  %75 = load i64, ptr %7, align 8, !tbaa !3
  br label %agxbsizeof.exit.i29

agxbsizeof.exit.i29:                              ; preds = %73, %agxblen.exit.i28
  %.0.i20.i30 = phi i64 [ %74, %73 ], [ %72, %agxblen.exit.i28 ]
  %.0.i14.i31 = phi i64 [ %75, %73 ], [ 31, %agxblen.exit.i28 ]
  %.not.i32 = icmp ult i64 %.0.i20.i30, %.0.i14.i31
  br i1 %.not.i32, label %77, label %76

76:                                               ; preds = %agxbsizeof.exit.i29
  tail call fastcc void @agxbmore(ptr noundef nonnull %0, i64 noundef 1)
  %.val.i15.pre.i33 = load i8, ptr %6, align 1, !tbaa !3
  br label %77

77:                                               ; preds = %76, %agxbsizeof.exit.i29
  %.val.i15.i34 = phi i8 [ %.val.i15.pre.i33, %76 ], [ %.val.i.i26, %agxbsizeof.exit.i29 ]
  %.not.i16.i35 = icmp eq i8 %.val.i15.i34, -1
  br i1 %.not.i16.i35, label %83, label %78

78:                                               ; preds = %77
  %79 = zext i8 %.val.i15.i34 to i64
  %80 = getelementptr inbounds nuw [31 x i8], ptr %0, i64 0, i64 %79
  store i8 %10, ptr %80, align 1, !tbaa !3
  %81 = load i8, ptr %6, align 1, !tbaa !3
  %82 = add i8 %81, 1
  store i8 %82, ptr %6, align 1, !tbaa !3
  br label %agxbputc.exit.backedge

83:                                               ; preds = %77
  %84 = load i64, ptr %8, align 8, !tbaa !3
  %85 = load ptr, ptr %0, align 8, !tbaa !3
  %86 = getelementptr inbounds nuw i8, ptr %85, i64 %84
  store i8 %10, ptr %86, align 1, !tbaa !3
  %87 = load i64, ptr %8, align 8, !tbaa !3
  %88 = add i64 %87, 1
  store i64 %88, ptr %8, align 8, !tbaa !3
  br label %agxbputc.exit.backedge

agxbputc.exit.backedge:                           ; preds = %83, %78, %65, %60, %agxbput_n.exit
  %.0.be = phi ptr [ %52, %agxbput_n.exit ], [ %9, %60 ], [ %9, %65 ], [ %9, %78 ], [ %9, %83 ]
  br label %agxbputc.exit, !llvm.loop !111

89:                                               ; preds = %agxbputc.exit
  ret void
}